; Function Attrs: mustprogress uwtable
define internal void @_ZN12_GLOBAL__N_136grpc_local_server_security_connector10check_peerE8tsi_peerP13grpc_endpointRKN9grpc_core11ChannelArgsEPNS4_13RefCountedPtrI17grpc_auth_contextEEP12grpc_closure(ptr nocapture noundef nonnull readonly align 8 dereferenceable(40) %this, ptr %peer.coerce0, i64 %peer.coerce1, ptr noundef %ep, ptr nocapture nonnull readnone align 8 %0, ptr nocapture noundef %auth_context, ptr noundef %on_peer_checked) unnamed_addr #3 align 2 {
entry:
  %server_creds_.i = getelementptr inbounds i8, ptr %this, i64 32
  %1 = load ptr, ptr %server_creds_.i, align 8
  %connect_type_.i = getelementptr inbounds i8, ptr %1, i64 40
  %2 = load i32, ptr %connect_type_.i, align 8
  tail call fastcc void @_ZN12_GLOBAL__N_116local_check_peerE8tsi_peerP13grpc_endpointPN9grpc_core13RefCountedPtrI17grpc_auth_contextEEP12grpc_closure23grpc_local_connect_type(ptr %peer.coerce0, i64 %peer.coerce1, ptr noundef %ep, ptr noundef %auth_context, ptr noundef %on_peer_checked, i32 noundef %2)
  ret void
}